******************************************************************************
               TMS320C6x Linker PC v7.0.3                      
******************************************************************************
>> Linked Wed Nov 16 01:39:35 2011

OUTPUT FILE NAME:   <test_aud.out>
ENTRY POINT SYMBOL: "_c_int00"  address: 00015840


MEMORY CONFIGURATION

         name            origin    length      used     unused   attr    fill
----------------------  --------  ---------  --------  --------  ----  --------
  RAM                   00000001   fffffffe  00016160  fffe9e9e  RWIX


SECTION ALLOCATION MAP

 output                                  attributes/
section   page    origin      length       input sections
--------  ----  ----------  ----------   ----------------
.pinit     0    00000004    00000000     UNINITIALIZED

.data      0    00000008    00000000     UNINITIALIZED

.far       0    00000008    00013a58     UNINITIALIZED
                  00000008    000138a0     test.obj (.far)
                  000138a8    000000f4     csl6713.lib : csl_irq.obj (.far)
                  0001399c    00000068     codec.obj (.far)
                  00013a04    00000038     csl6713.lib : csl_mcbsp.obj (.far)
                  00013a3c    0000000c     rts6700.lib : exit.obj (.far)
                  00013a48    00000008                 : _lock.obj (.far)
                  00013a50    00000008                 : divd.obj (.far)
                  00013a58    00000004                 : errno.obj (.far)
                  00013a5c    00000002     dsk6713bsl.lib : dsk6713.obj (.far)
                  00013a5e    00000002                    : dsk6713_led.obj (.far)

.text      0    00013a60    00002000     
                  00013a60    000006e0     test.obj (.text)
                  00014140    00000560     codec.obj (.text)
                  000146a0    00000480     dsk6713bsl.lib : dsk6713.obj (.text)
                  00014b20    00000240     rts6700.lib : memcpy62.obj (.text:_memcpy)
                  00014d60    000001e0     ring.obj (.text)
                  00014f40    000001a0     csl6713.lib : csl_mcbsp.obj (.text:_MCBSP_reset)
                  000150e0    000001a0     dsk6713bsl.lib : dsk6713_led.obj (.text)
                  00015280    00000120     rts6700.lib : autoinit.obj (.text:__auto_init)
                  000153a0    00000120                 : exit.obj (.text:_exit)
                  000154c0    00000100     csl6713.lib : csl_mcbsp.obj (.text:_MCBSP_open)
                  000155c0    00000100                 : csl_mcbsp.obj (.text:_MCBSP_start)
                  000156c0    000000e0     rts6700.lib : strasg.obj (.text:__strasg)
                  000157a0    000000a0     csl6713.lib : csl_mcbsp.obj (.text:_MCBSP_config)
                  00015840    00000080     rts6700.lib : boot.obj (.text:_c_int00)
                  000158c0    00000080     dsk6713bsl.lib : dsk6713_dip.obj (.text)
                  00015940    00000040     rts6700.lib : args_main.obj (.text:__args_main)
                  00015980    00000020     csl6713.lib : csl_mcbsp.obj (.text:_MCBSP_read)
                  000159a0    00000020                 : csl_mcbsp.obj (.text:_MCBSP_rrdy)
                  000159c0    00000020                 : csl_mcbsp.obj (.text:_MCBSP_write)
                  000159e0    00000020                 : csl_mcbsp.obj (.text:_MCBSP_xrdy)
                  00015a00    00000020     rts6700.lib : _lock.obj (.text:__nop)
                  00015a20    00000020                 : exit.obj (.text:_abort)
                  00015a40    00000020     csl6713.lib : csl_irq.obj (.text)

.stack     0    00015a60    00000400     UNINITIALIZED
                  00015a60    00000008     rts6700.lib : boot.obj (.stack)
                  00015a68    000003f8     --HOLE--

.cinit     0    00015e60    0000029c     
                  00015e60    0000012c     csl6713.lib : csl_irq.obj (.cinit)
                  00015f8c    00000004     --HOLE-- [fill = 0]
                  00015f90    00000080     codec.obj (.cinit)
                  00016010    00000054     csl6713.lib : csl_mcbsp.obj (.cinit)
                  00016064    00000004     --HOLE-- [fill = 0]
                  00016068    0000002c     rts6700.lib : exit.obj (.cinit)
                  00016094    00000004     --HOLE-- [fill = 0]
                  00016098    0000001c                 : _lock.obj (.cinit)
                  000160b4    00000004     --HOLE-- [fill = 0]
                  000160b8    0000001a     test.obj (.cinit)
                  000160d2    00000006     --HOLE-- [fill = 0]
                  000160d8    00000010     rts6700.lib : divd.obj (.cinit)
                  000160e8    0000000c                 : errno.obj (.cinit)
                  000160f4    00000004     --HOLE-- [fill = 0]
                  000160f8    00000004     (.pad.cinit) [fill = 0]

.bss       0    00016100    00000034     UNINITIALIZED
                  00016100    00000026     test.obj (.bss)
                  00016126    00000002     --HOLE--
                  00016128    0000000c     codec.obj (.bss)

.const     0    00016138    00000020     
                  00016138    00000020     dsk6713bsl.lib : dsk6713.obj (.const)

.switch    0    00016158    00000018     
                  00016158    00000018     test.obj (.switch:_wave)


GLOBAL SYMBOLS: SORTED ALPHABETICALLY BY Name 

address    name
--------   ----
00016100   $bss
00016100   .bss
00000008   .data
00013a60   .text
00015a20   C$$EXIT
000158c8   _DSK6713_DIP_get
000158c0   _DSK6713_DIP_init
000150e0   _DSK6713_LED_init
00015108   _DSK6713_LED_off
00015164   _DSK6713_LED_on
000151c0   _DSK6713_LED_toggle
00014ab4   _DSK6713_getVersion
000146ec   _DSK6713_init
00014a08   _DSK6713_rget
00014a1c   _DSK6713_rset
00013a5c   _DSK6713_version
00014a30   _DSK6713_wait
00014a88   _DSK6713_waitusec
000157a0   _MCBSP_config
000154c0   _MCBSP_open
00015980   _MCBSP_read
00014f40   _MCBSP_reset
000159a0   _MCBSP_rrdy
000155c0   _MCBSP_start
000159c0   _MCBSP_write
000159e0   _MCBSP_xrdy
00013994   __IRQ_dispatchTable
000138d0   __IRQ_eventTable
00015a40   __IRQ_hookFetchPacket
00013954   __IRQ_intTable
00013a34   __MCBSP_hDev0
00013a38   __MCBSP_hDev1
00015e60   __STACK_END
00000400   __STACK_SIZE
00000001   __TI_args_main
00013a44   ___TI_enable_exit_profile_output
ffffffff   ___TI_pprof_out_hndl
ffffffff   ___TI_prof_data_size
ffffffff   ___TI_prof_data_start
ffffffff   ___binit__
00016100   ___bss__
ffffffff   ___c_args__
00015e60   ___cinit__
00000008   ___data__
00000008   ___edata__
00016134   ___end__
00015a60   ___etext__
ffffffff   ___pinit__
00013a60   ___text__
00015940   __args_main
00015280   __auto_init
00013a3c   __cleanup_ptr
00013a40   __dtors_ptr
00013a48   __lock
00015a00   __nop
00015a60   __stack
000156c0   __strasg
00013a4c   __unlock
00015a20   _abort
0001399c   _aic23_config
00015840   _c_int00
00016130   _codec
000142dc   _codecSetup
000145fc   _codec_config
00014434   _codec_reg_set
00014528   _codec_reset
00014de0   _dec_ring
00013a58   _errno
000153a0   _exit
00014300   _getData
00014d60   _inc_ring
00014e60   _init_ring
00014f14   _init_ring_ptr
00000008   _lbufin
00009c48   _lbufout
00016110   _lptrcpyi
00016118   _lptrcpyo
00016100   _lptrin
00016108   _lptrout
00013888   _lringin
00013898   _lringout
00013a60   _main
00016128   _mcbspControlHandle
0001612c   _mcbspDataHandle
00014140   _mcbspSetup
000139e4   _mcbsp_control_config
000139c4   _mcbsp_data_config
00014b20   _memcpy
00004e28   _rbufin
0000ea68   _rbufout
00016114   _rptrcpyi
0001611c   _rptrcpyo
00016104   _rptrin
0001610c   _rptrout
00013890   _rringin
000138a0   _rringout
00014390   _sendData
00013c18   _test
00013e40   _wave
00016120   _wave_count
00016124   _wave_del
ffffffff   binit
00015e60   cinit
00000008   edata
00016134   end
00015a60   etext
ffffffff   pinit


GLOBAL SYMBOLS: SORTED BY Symbol Address 

address    name
--------   ----
00000001   __TI_args_main
00000008   .data
00000008   ___data__
00000008   ___edata__
00000008   _lbufin
00000008   edata
00000400   __STACK_SIZE
00004e28   _rbufin
00009c48   _lbufout
0000ea68   _rbufout
00013888   _lringin
00013890   _rringin
00013898   _lringout
000138a0   _rringout
000138d0   __IRQ_eventTable
00013954   __IRQ_intTable
00013994   __IRQ_dispatchTable
0001399c   _aic23_config
000139c4   _mcbsp_data_config
000139e4   _mcbsp_control_config
00013a34   __MCBSP_hDev0
00013a38   __MCBSP_hDev1
00013a3c   __cleanup_ptr
00013a40   __dtors_ptr
00013a44   ___TI_enable_exit_profile_output
00013a48   __lock
00013a4c   __unlock
00013a58   _errno
00013a5c   _DSK6713_version
00013a60   .text
00013a60   ___text__
00013a60   _main
00013c18   _test
00013e40   _wave
00014140   _mcbspSetup
000142dc   _codecSetup
00014300   _getData
00014390   _sendData
00014434   _codec_reg_set
00014528   _codec_reset
000145fc   _codec_config
000146ec   _DSK6713_init
00014a08   _DSK6713_rget
00014a1c   _DSK6713_rset
00014a30   _DSK6713_wait
00014a88   _DSK6713_waitusec
00014ab4   _DSK6713_getVersion
00014b20   _memcpy
00014d60   _inc_ring
00014de0   _dec_ring
00014e60   _init_ring
00014f14   _init_ring_ptr
00014f40   _MCBSP_reset
000150e0   _DSK6713_LED_init
00015108   _DSK6713_LED_off
00015164   _DSK6713_LED_on
000151c0   _DSK6713_LED_toggle
00015280   __auto_init
000153a0   _exit
000154c0   _MCBSP_open
000155c0   _MCBSP_start
000156c0   __strasg
000157a0   _MCBSP_config
00015840   _c_int00
000158c0   _DSK6713_DIP_init
000158c8   _DSK6713_DIP_get
00015940   __args_main
00015980   _MCBSP_read
000159a0   _MCBSP_rrdy
000159c0   _MCBSP_write
000159e0   _MCBSP_xrdy
00015a00   __nop
00015a20   C$$EXIT
00015a20   _abort
00015a40   __IRQ_hookFetchPacket
00015a60   ___etext__
00015a60   __stack
00015a60   etext
00015e60   __STACK_END
00015e60   ___cinit__
00015e60   cinit
00016100   $bss
00016100   .bss
00016100   ___bss__
00016100   _lptrin
00016104   _rptrin
00016108   _lptrout
0001610c   _rptrout
00016110   _lptrcpyi
00016114   _rptrcpyi
00016118   _lptrcpyo
0001611c   _rptrcpyo
00016120   _wave_count
00016124   _wave_del
00016128   _mcbspControlHandle
0001612c   _mcbspDataHandle
00016130   _codec
00016134   ___end__
00016134   end
ffffffff   ___TI_pprof_out_hndl
ffffffff   ___TI_prof_data_size
ffffffff   ___TI_prof_data_start
ffffffff   ___binit__
ffffffff   ___c_args__
ffffffff   ___pinit__
ffffffff   binit
ffffffff   pinit

[107 symbols]
